
shellcode:     file format elf64-x86-64


Disassembly of section .init:

0000000000001000 <_init>:
    1000:	f3 0f 1e fa          	endbr64 
    1004:	48 83 ec 08          	sub    $0x8,%rsp
    1008:	48 8b 05 d9 2f 00 00 	mov    0x2fd9(%rip),%rax        # 3fe8 <__gmon_start__@Base>
    100f:	48 85 c0             	test   %rax,%rax
    1012:	74 02                	je     1016 <_init+0x16>
    1014:	ff d0                	call   *%rax
    1016:	48 83 c4 08          	add    $0x8,%rsp
    101a:	c3                   	ret    

Disassembly of section .plt:

0000000000001020 <.plt>:
    1020:	ff 35 62 2f 00 00    	push   0x2f62(%rip)        # 3f88 <_GLOBAL_OFFSET_TABLE_+0x8>
    1026:	f2 ff 25 63 2f 00 00 	bnd jmp *0x2f63(%rip)        # 3f90 <_GLOBAL_OFFSET_TABLE_+0x10>
    102d:	0f 1f 00             	nopl   (%rax)
    1030:	f3 0f 1e fa          	endbr64 
    1034:	68 00 00 00 00       	push   $0x0
    1039:	f2 e9 e1 ff ff ff    	bnd jmp 1020 <_init+0x20>
    103f:	90                   	nop
    1040:	f3 0f 1e fa          	endbr64 
    1044:	68 01 00 00 00       	push   $0x1
    1049:	f2 e9 d1 ff ff ff    	bnd jmp 1020 <_init+0x20>
    104f:	90                   	nop
    1050:	f3 0f 1e fa          	endbr64 
    1054:	68 02 00 00 00       	push   $0x2
    1059:	f2 e9 c1 ff ff ff    	bnd jmp 1020 <_init+0x20>
    105f:	90                   	nop
    1060:	f3 0f 1e fa          	endbr64 
    1064:	68 03 00 00 00       	push   $0x3
    1069:	f2 e9 b1 ff ff ff    	bnd jmp 1020 <_init+0x20>
    106f:	90                   	nop
    1070:	f3 0f 1e fa          	endbr64 
    1074:	68 04 00 00 00       	push   $0x4
    1079:	f2 e9 a1 ff ff ff    	bnd jmp 1020 <_init+0x20>
    107f:	90                   	nop
    1080:	f3 0f 1e fa          	endbr64 
    1084:	68 05 00 00 00       	push   $0x5
    1089:	f2 e9 91 ff ff ff    	bnd jmp 1020 <_init+0x20>
    108f:	90                   	nop
    1090:	f3 0f 1e fa          	endbr64 
    1094:	68 06 00 00 00       	push   $0x6
    1099:	f2 e9 81 ff ff ff    	bnd jmp 1020 <_init+0x20>
    109f:	90                   	nop
    10a0:	f3 0f 1e fa          	endbr64 
    10a4:	68 07 00 00 00       	push   $0x7
    10a9:	f2 e9 71 ff ff ff    	bnd jmp 1020 <_init+0x20>
    10af:	90                   	nop

Disassembly of section .plt.got:

00000000000010b0 <__cxa_finalize@plt>:
    10b0:	f3 0f 1e fa          	endbr64 
    10b4:	f2 ff 25 3d 2f 00 00 	bnd jmp *0x2f3d(%rip)        # 3ff8 <__cxa_finalize@GLIBC_2.2.5>
    10bb:	0f 1f 44 00 00       	nopl   0x0(%rax,%rax,1)

Disassembly of section .plt.sec:

00000000000010c0 <write@plt>:
    10c0:	f3 0f 1e fa          	endbr64 
    10c4:	f2 ff 25 cd 2e 00 00 	bnd jmp *0x2ecd(%rip)        # 3f98 <write@GLIBC_2.2.5>
    10cb:	0f 1f 44 00 00       	nopl   0x0(%rax,%rax,1)

00000000000010d0 <__stack_chk_fail@plt>:
    10d0:	f3 0f 1e fa          	endbr64 
    10d4:	f2 ff 25 c5 2e 00 00 	bnd jmp *0x2ec5(%rip)        # 3fa0 <__stack_chk_fail@GLIBC_2.4>
    10db:	0f 1f 44 00 00       	nopl   0x0(%rax,%rax,1)

00000000000010e0 <htons@plt>:
    10e0:	f3 0f 1e fa          	endbr64 
    10e4:	f2 ff 25 bd 2e 00 00 	bnd jmp *0x2ebd(%rip)        # 3fa8 <htons@GLIBC_2.2.5>
    10eb:	0f 1f 44 00 00       	nopl   0x0(%rax,%rax,1)

00000000000010f0 <memset@plt>:
    10f0:	f3 0f 1e fa          	endbr64 
    10f4:	f2 ff 25 b5 2e 00 00 	bnd jmp *0x2eb5(%rip)        # 3fb0 <memset@GLIBC_2.2.5>
    10fb:	0f 1f 44 00 00       	nopl   0x0(%rax,%rax,1)

0000000000001100 <read@plt>:
    1100:	f3 0f 1e fa          	endbr64 
    1104:	f2 ff 25 ad 2e 00 00 	bnd jmp *0x2ead(%rip)        # 3fb8 <read@GLIBC_2.2.5>
    110b:	0f 1f 44 00 00       	nopl   0x0(%rax,%rax,1)

0000000000001110 <inet_addr@plt>:
    1110:	f3 0f 1e fa          	endbr64 
    1114:	f2 ff 25 a5 2e 00 00 	bnd jmp *0x2ea5(%rip)        # 3fc0 <inet_addr@GLIBC_2.2.5>
    111b:	0f 1f 44 00 00       	nopl   0x0(%rax,%rax,1)

0000000000001120 <connect@plt>:
    1120:	f3 0f 1e fa          	endbr64 
    1124:	f2 ff 25 9d 2e 00 00 	bnd jmp *0x2e9d(%rip)        # 3fc8 <connect@GLIBC_2.2.5>
    112b:	0f 1f 44 00 00       	nopl   0x0(%rax,%rax,1)

0000000000001130 <socket@plt>:
    1130:	f3 0f 1e fa          	endbr64 
    1134:	f2 ff 25 95 2e 00 00 	bnd jmp *0x2e95(%rip)        # 3fd0 <socket@GLIBC_2.2.5>
    113b:	0f 1f 44 00 00       	nopl   0x0(%rax,%rax,1)

Disassembly of section .text:

0000000000001140 <_start>:
    1140:	f3 0f 1e fa          	endbr64 
    1144:	31 ed                	xor    %ebp,%ebp
    1146:	49 89 d1             	mov    %rdx,%r9
    1149:	5e                   	pop    %rsi
    114a:	48 89 e2             	mov    %rsp,%rdx
    114d:	48 83 e4 f0          	and    $0xfffffffffffffff0,%rsp
    1151:	50                   	push   %rax
    1152:	54                   	push   %rsp
    1153:	45 31 c0             	xor    %r8d,%r8d
    1156:	31 c9                	xor    %ecx,%ecx
    1158:	48 8d 3d ca 00 00 00 	lea    0xca(%rip),%rdi        # 1229 <main>
    115f:	ff 15 73 2e 00 00    	call   *0x2e73(%rip)        # 3fd8 <__libc_start_main@GLIBC_2.34>
    1165:	f4                   	hlt    
    1166:	66 2e 0f 1f 84 00 00 	cs nopw 0x0(%rax,%rax,1)
    116d:	00 00 00 

0000000000001170 <deregister_tm_clones>:
    1170:	48 8d 3d 99 2e 00 00 	lea    0x2e99(%rip),%rdi        # 4010 <__TMC_END__>
    1177:	48 8d 05 92 2e 00 00 	lea    0x2e92(%rip),%rax        # 4010 <__TMC_END__>
    117e:	48 39 f8             	cmp    %rdi,%rax
    1181:	74 15                	je     1198 <deregister_tm_clones+0x28>
    1183:	48 8b 05 56 2e 00 00 	mov    0x2e56(%rip),%rax        # 3fe0 <_ITM_deregisterTMCloneTable@Base>
    118a:	48 85 c0             	test   %rax,%rax
    118d:	74 09                	je     1198 <deregister_tm_clones+0x28>
    118f:	ff e0                	jmp    *%rax
    1191:	0f 1f 80 00 00 00 00 	nopl   0x0(%rax)
    1198:	c3                   	ret    
    1199:	0f 1f 80 00 00 00 00 	nopl   0x0(%rax)

00000000000011a0 <register_tm_clones>:
    11a0:	48 8d 3d 69 2e 00 00 	lea    0x2e69(%rip),%rdi        # 4010 <__TMC_END__>
    11a7:	48 8d 35 62 2e 00 00 	lea    0x2e62(%rip),%rsi        # 4010 <__TMC_END__>
    11ae:	48 29 fe             	sub    %rdi,%rsi
    11b1:	48 89 f0             	mov    %rsi,%rax
    11b4:	48 c1 ee 3f          	shr    $0x3f,%rsi
    11b8:	48 c1 f8 03          	sar    $0x3,%rax
    11bc:	48 01 c6             	add    %rax,%rsi
    11bf:	48 d1 fe             	sar    %rsi
    11c2:	74 14                	je     11d8 <register_tm_clones+0x38>
    11c4:	48 8b 05 25 2e 00 00 	mov    0x2e25(%rip),%rax        # 3ff0 <_ITM_registerTMCloneTable@Base>
    11cb:	48 85 c0             	test   %rax,%rax
    11ce:	74 08                	je     11d8 <register_tm_clones+0x38>
    11d0:	ff e0                	jmp    *%rax
    11d2:	66 0f 1f 44 00 00    	nopw   0x0(%rax,%rax,1)
    11d8:	c3                   	ret    
    11d9:	0f 1f 80 00 00 00 00 	nopl   0x0(%rax)

00000000000011e0 <__do_global_dtors_aux>:
    11e0:	f3 0f 1e fa          	endbr64 
    11e4:	80 3d 25 2e 00 00 00 	cmpb   $0x0,0x2e25(%rip)        # 4010 <__TMC_END__>
    11eb:	75 2b                	jne    1218 <__do_global_dtors_aux+0x38>
    11ed:	55                   	push   %rbp
    11ee:	48 83 3d 02 2e 00 00 	cmpq   $0x0,0x2e02(%rip)        # 3ff8 <__cxa_finalize@GLIBC_2.2.5>
    11f5:	00 
    11f6:	48 89 e5             	mov    %rsp,%rbp
    11f9:	74 0c                	je     1207 <__do_global_dtors_aux+0x27>
    11fb:	48 8b 3d 06 2e 00 00 	mov    0x2e06(%rip),%rdi        # 4008 <__dso_handle>
    1202:	e8 a9 fe ff ff       	call   10b0 <__cxa_finalize@plt>
    1207:	e8 64 ff ff ff       	call   1170 <deregister_tm_clones>
    120c:	c6 05 fd 2d 00 00 01 	movb   $0x1,0x2dfd(%rip)        # 4010 <__TMC_END__>
    1213:	5d                   	pop    %rbp
    1214:	c3                   	ret    
    1215:	0f 1f 00             	nopl   (%rax)
    1218:	c3                   	ret    
    1219:	0f 1f 80 00 00 00 00 	nopl   0x0(%rax)

0000000000001220 <frame_dummy>:
    1220:	f3 0f 1e fa          	endbr64 
    1224:	e9 77 ff ff ff       	jmp    11a0 <register_tm_clones>

0000000000001229 <main>:
    1229:	f3 0f 1e fa          	endbr64 
    122d:	55                   	push   %rbp
    122e:	48 89 e5             	mov    %rsp,%rbp
    1231:	48 81 ec e0 01 00 00 	sub    $0x1e0,%rsp
    1238:	64 48 8b 04 25 28 00 	mov    %fs:0x28,%rax
    123f:	00 00 
    1241:	48 89 45 f8          	mov    %rax,-0x8(%rbp)
    1245:	31 c0                	xor    %eax,%eax
    1247:	ba 00 00 00 00       	mov    $0x0,%edx
    124c:	be 01 00 00 00       	mov    $0x1,%esi
    1251:	bf 02 00 00 00       	mov    $0x2,%edi
    1256:	e8 d5 fe ff ff       	call   1130 <socket@plt>
    125b:	89 85 2c fe ff ff    	mov    %eax,-0x1d4(%rbp)
    1261:	48 8d 85 30 fe ff ff 	lea    -0x1d0(%rbp),%rax
    1268:	48 c7 00 00 00 00 00 	movq   $0x0,(%rax)
    126f:	48 c7 40 08 00 00 00 	movq   $0x0,0x8(%rax)
    1276:	00 
    1277:	66 c7 85 30 fe ff ff 	movw   $0x2,-0x1d0(%rbp)
    127e:	02 00 
    1280:	48 8d 05 7d 0d 00 00 	lea    0xd7d(%rip),%rax        # 2004 <_IO_stdin_used+0x4>
    1287:	48 89 c7             	mov    %rax,%rdi
    128a:	e8 81 fe ff ff       	call   1110 <inet_addr@plt>
    128f:	89 85 34 fe ff ff    	mov    %eax,-0x1cc(%rbp)
    1295:	bf 3d 22 00 00       	mov    $0x223d,%edi
    129a:	e8 41 fe ff ff       	call   10e0 <htons@plt>
    129f:	66 89 85 32 fe ff ff 	mov    %ax,-0x1ce(%rbp)
    12a6:	48 8d 8d 30 fe ff ff 	lea    -0x1d0(%rbp),%rcx
    12ad:	8b 85 2c fe ff ff    	mov    -0x1d4(%rbp),%eax
    12b3:	ba 10 00 00 00       	mov    $0x10,%edx
    12b8:	48 89 ce             	mov    %rcx,%rsi
    12bb:	89 c7                	mov    %eax,%edi
    12bd:	e8 5e fe ff ff       	call   1120 <connect@plt>
    12c2:	48 8d 85 40 fe ff ff 	lea    -0x1c0(%rbp),%rax
    12c9:	ba a4 00 00 00       	mov    $0xa4,%edx
    12ce:	be 00 00 00 00       	mov    $0x0,%esi
    12d3:	48 89 c7             	mov    %rax,%rdi
    12d6:	e8 15 fe ff ff       	call   10f0 <memset@plt>
    12db:	c7 85 40 fe ff ff 87 	movl   $0x8787,-0x1c0(%rbp)
    12e2:	87 00 00 
    12e5:	48 8d 8d 40 fe ff ff 	lea    -0x1c0(%rbp),%rcx
    12ec:	8b 85 2c fe ff ff    	mov    -0x1d4(%rbp),%eax
    12f2:	ba a4 00 00 00       	mov    $0xa4,%edx
    12f7:	48 89 ce             	mov    %rcx,%rsi
    12fa:	89 c7                	mov    %eax,%edi
    12fc:	e8 bf fd ff ff       	call   10c0 <write@plt>
    1301:	48 8d 85 f0 fe ff ff 	lea    -0x110(%rbp),%rax
    1308:	ba 04 01 00 00       	mov    $0x104,%edx
    130d:	be 00 00 00 00       	mov    $0x0,%esi
    1312:	48 89 c7             	mov    %rax,%rdi
    1315:	e8 d6 fd ff ff       	call   10f0 <memset@plt>
    131a:	48 8d 8d f0 fe ff ff 	lea    -0x110(%rbp),%rcx
    1321:	8b 85 2c fe ff ff    	mov    -0x1d4(%rbp),%eax
    1327:	ba 04 01 00 00       	mov    $0x104,%edx
    132c:	48 89 ce             	mov    %rcx,%rsi
    132f:	89 c7                	mov    %eax,%edi
    1331:	e8 ca fd ff ff       	call   1100 <read@plt>
    1336:	48 8d 85 f0 fe ff ff 	lea    -0x110(%rbp),%rax
    133d:	ba 04 01 00 00       	mov    $0x104,%edx
    1342:	48 89 c6             	mov    %rax,%rsi
    1345:	bf 01 00 00 00       	mov    $0x1,%edi
    134a:	e8 71 fd ff ff       	call   10c0 <write@plt>
    134f:	b8 00 00 00 00       	mov    $0x0,%eax
    1354:	48 8b 55 f8          	mov    -0x8(%rbp),%rdx
    1358:	64 48 2b 14 25 28 00 	sub    %fs:0x28,%rdx
    135f:	00 00 
    1361:	74 05                	je     1368 <main+0x13f>
    1363:	e8 68 fd ff ff       	call   10d0 <__stack_chk_fail@plt>
    1368:	c9                   	leave  
    1369:	c3                   	ret    

Disassembly of section .fini:

000000000000136c <_fini>:
    136c:	f3 0f 1e fa          	endbr64 
    1370:	48 83 ec 08          	sub    $0x8,%rsp
    1374:	48 83 c4 08          	add    $0x8,%rsp
    1378:	c3                   	ret    
