
./src/exploit3.bin:     file format elf64-x86-64


Disassembly of section .init:

0000000000001000 <_init>:
    1000:	f3 0f 1e fa          	endbr64 
    1004:	48 83 ec 08          	sub    $0x8,%rsp
    1008:	48 8b 05 d9 2f 00 00 	mov    0x2fd9(%rip),%rax        # 3fe8 <__gmon_start__>
    100f:	48 85 c0             	test   %rax,%rax
    1012:	74 02                	je     1016 <_init+0x16>
    1014:	ff d0                	call   *%rax
    1016:	48 83 c4 08          	add    $0x8,%rsp
    101a:	c3                   	ret    

Disassembly of section .plt:

0000000000001020 <.plt>:
    1020:	ff 35 52 2f 00 00    	push   0x2f52(%rip)        # 3f78 <_GLOBAL_OFFSET_TABLE_+0x8>
    1026:	f2 ff 25 53 2f 00 00 	bnd jmp *0x2f53(%rip)        # 3f80 <_GLOBAL_OFFSET_TABLE_+0x10>
    102d:	0f 1f 00             	nopl   (%rax)
    1030:	f3 0f 1e fa          	endbr64 
    1034:	68 00 00 00 00       	push   $0x0
    1039:	f2 e9 e1 ff ff ff    	bnd jmp 1020 <.plt>
    103f:	90                   	nop
    1040:	f3 0f 1e fa          	endbr64 
    1044:	68 01 00 00 00       	push   $0x1
    1049:	f2 e9 d1 ff ff ff    	bnd jmp 1020 <.plt>
    104f:	90                   	nop
    1050:	f3 0f 1e fa          	endbr64 
    1054:	68 02 00 00 00       	push   $0x2
    1059:	f2 e9 c1 ff ff ff    	bnd jmp 1020 <.plt>
    105f:	90                   	nop
    1060:	f3 0f 1e fa          	endbr64 
    1064:	68 03 00 00 00       	push   $0x3
    1069:	f2 e9 b1 ff ff ff    	bnd jmp 1020 <.plt>
    106f:	90                   	nop
    1070:	f3 0f 1e fa          	endbr64 
    1074:	68 04 00 00 00       	push   $0x4
    1079:	f2 e9 a1 ff ff ff    	bnd jmp 1020 <.plt>
    107f:	90                   	nop
    1080:	f3 0f 1e fa          	endbr64 
    1084:	68 05 00 00 00       	push   $0x5
    1089:	f2 e9 91 ff ff ff    	bnd jmp 1020 <.plt>
    108f:	90                   	nop
    1090:	f3 0f 1e fa          	endbr64 
    1094:	68 06 00 00 00       	push   $0x6
    1099:	f2 e9 81 ff ff ff    	bnd jmp 1020 <.plt>
    109f:	90                   	nop
    10a0:	f3 0f 1e fa          	endbr64 
    10a4:	68 07 00 00 00       	push   $0x7
    10a9:	f2 e9 71 ff ff ff    	bnd jmp 1020 <.plt>
    10af:	90                   	nop
    10b0:	f3 0f 1e fa          	endbr64 
    10b4:	68 08 00 00 00       	push   $0x8
    10b9:	f2 e9 61 ff ff ff    	bnd jmp 1020 <.plt>
    10bf:	90                   	nop
    10c0:	f3 0f 1e fa          	endbr64 
    10c4:	68 09 00 00 00       	push   $0x9
    10c9:	f2 e9 51 ff ff ff    	bnd jmp 1020 <.plt>
    10cf:	90                   	nop

Disassembly of section .plt.got:

00000000000010d0 <__cxa_finalize@plt>:
    10d0:	f3 0f 1e fa          	endbr64 
    10d4:	f2 ff 25 1d 2f 00 00 	bnd jmp *0x2f1d(%rip)        # 3ff8 <__cxa_finalize@GLIBC_2.2.5>
    10db:	0f 1f 44 00 00       	nopl   0x0(%rax,%rax,1)

Disassembly of section .plt.sec:

00000000000010e0 <getenv@plt>:
    10e0:	f3 0f 1e fa          	endbr64 
    10e4:	f2 ff 25 9d 2e 00 00 	bnd jmp *0x2e9d(%rip)        # 3f88 <getenv@GLIBC_2.2.5>
    10eb:	0f 1f 44 00 00       	nopl   0x0(%rax,%rax,1)

00000000000010f0 <puts@plt>:
    10f0:	f3 0f 1e fa          	endbr64 
    10f4:	f2 ff 25 95 2e 00 00 	bnd jmp *0x2e95(%rip)        # 3f90 <puts@GLIBC_2.2.5>
    10fb:	0f 1f 44 00 00       	nopl   0x0(%rax,%rax,1)

0000000000001100 <chdir@plt>:
    1100:	f3 0f 1e fa          	endbr64 
    1104:	f2 ff 25 8d 2e 00 00 	bnd jmp *0x2e8d(%rip)        # 3f98 <chdir@GLIBC_2.2.5>
    110b:	0f 1f 44 00 00       	nopl   0x0(%rax,%rax,1)

0000000000001110 <printf@plt>:
    1110:	f3 0f 1e fa          	endbr64 
    1114:	f2 ff 25 85 2e 00 00 	bnd jmp *0x2e85(%rip)        # 3fa0 <printf@GLIBC_2.2.5>
    111b:	0f 1f 44 00 00       	nopl   0x0(%rax,%rax,1)

0000000000001120 <alarm@plt>:
    1120:	f3 0f 1e fa          	endbr64 
    1124:	f2 ff 25 7d 2e 00 00 	bnd jmp *0x2e7d(%rip)        # 3fa8 <alarm@GLIBC_2.2.5>
    112b:	0f 1f 44 00 00       	nopl   0x0(%rax,%rax,1)

0000000000001130 <getchar@plt>:
    1130:	f3 0f 1e fa          	endbr64 
    1134:	f2 ff 25 75 2e 00 00 	bnd jmp *0x2e75(%rip)        # 3fb0 <getchar@GLIBC_2.2.5>
    113b:	0f 1f 44 00 00       	nopl   0x0(%rax,%rax,1)

0000000000001140 <signal@plt>:
    1140:	f3 0f 1e fa          	endbr64 
    1144:	f2 ff 25 6d 2e 00 00 	bnd jmp *0x2e6d(%rip)        # 3fb8 <signal@GLIBC_2.2.5>
    114b:	0f 1f 44 00 00       	nopl   0x0(%rax,%rax,1)

0000000000001150 <setvbuf@plt>:
    1150:	f3 0f 1e fa          	endbr64 
    1154:	f2 ff 25 65 2e 00 00 	bnd jmp *0x2e65(%rip)        # 3fc0 <setvbuf@GLIBC_2.2.5>
    115b:	0f 1f 44 00 00       	nopl   0x0(%rax,%rax,1)

0000000000001160 <exit@plt>:
    1160:	f3 0f 1e fa          	endbr64 
    1164:	f2 ff 25 5d 2e 00 00 	bnd jmp *0x2e5d(%rip)        # 3fc8 <exit@GLIBC_2.2.5>
    116b:	0f 1f 44 00 00       	nopl   0x0(%rax,%rax,1)

0000000000001170 <execl@plt>:
    1170:	f3 0f 1e fa          	endbr64 
    1174:	f2 ff 25 55 2e 00 00 	bnd jmp *0x2e55(%rip)        # 3fd0 <execl@GLIBC_2.2.5>
    117b:	0f 1f 44 00 00       	nopl   0x0(%rax,%rax,1)

Disassembly of section .text:

0000000000001180 <_start>:
    1180:	f3 0f 1e fa          	endbr64 
    1184:	31 ed                	xor    %ebp,%ebp
    1186:	49 89 d1             	mov    %rdx,%r9
    1189:	5e                   	pop    %rsi
    118a:	48 89 e2             	mov    %rsp,%rdx
    118d:	48 83 e4 f0          	and    $0xfffffffffffffff0,%rsp
    1191:	50                   	push   %rax
    1192:	54                   	push   %rsp
    1193:	4c 8d 05 d6 02 00 00 	lea    0x2d6(%rip),%r8        # 1470 <__libc_csu_fini>
    119a:	48 8d 0d 5f 02 00 00 	lea    0x25f(%rip),%rcx        # 1400 <__libc_csu_init>
    11a1:	48 8d 3d 00 02 00 00 	lea    0x200(%rip),%rdi        # 13a8 <main>
    11a8:	ff 15 32 2e 00 00    	call   *0x2e32(%rip)        # 3fe0 <__libc_start_main@GLIBC_2.2.5>
    11ae:	f4                   	hlt    
    11af:	90                   	nop

00000000000011b0 <deregister_tm_clones>:
    11b0:	48 8d 3d 59 2e 00 00 	lea    0x2e59(%rip),%rdi        # 4010 <__TMC_END__>
    11b7:	48 8d 05 52 2e 00 00 	lea    0x2e52(%rip),%rax        # 4010 <__TMC_END__>
    11be:	48 39 f8             	cmp    %rdi,%rax
    11c1:	74 15                	je     11d8 <deregister_tm_clones+0x28>
    11c3:	48 8b 05 0e 2e 00 00 	mov    0x2e0e(%rip),%rax        # 3fd8 <_ITM_deregisterTMCloneTable>
    11ca:	48 85 c0             	test   %rax,%rax
    11cd:	74 09                	je     11d8 <deregister_tm_clones+0x28>
    11cf:	ff e0                	jmp    *%rax
    11d1:	0f 1f 80 00 00 00 00 	nopl   0x0(%rax)
    11d8:	c3                   	ret    
    11d9:	0f 1f 80 00 00 00 00 	nopl   0x0(%rax)

00000000000011e0 <register_tm_clones>:
    11e0:	48 8d 3d 29 2e 00 00 	lea    0x2e29(%rip),%rdi        # 4010 <__TMC_END__>
    11e7:	48 8d 35 22 2e 00 00 	lea    0x2e22(%rip),%rsi        # 4010 <__TMC_END__>
    11ee:	48 29 fe             	sub    %rdi,%rsi
    11f1:	48 89 f0             	mov    %rsi,%rax
    11f4:	48 c1 ee 3f          	shr    $0x3f,%rsi
    11f8:	48 c1 f8 03          	sar    $0x3,%rax
    11fc:	48 01 c6             	add    %rax,%rsi
    11ff:	48 d1 fe             	sar    %rsi
    1202:	74 14                	je     1218 <register_tm_clones+0x38>
    1204:	48 8b 05 e5 2d 00 00 	mov    0x2de5(%rip),%rax        # 3ff0 <_ITM_registerTMCloneTable>
    120b:	48 85 c0             	test   %rax,%rax
    120e:	74 08                	je     1218 <register_tm_clones+0x38>
    1210:	ff e0                	jmp    *%rax
    1212:	66 0f 1f 44 00 00    	nopw   0x0(%rax,%rax,1)
    1218:	c3                   	ret    
    1219:	0f 1f 80 00 00 00 00 	nopl   0x0(%rax)

0000000000001220 <__do_global_dtors_aux>:
    1220:	f3 0f 1e fa          	endbr64 
    1224:	80 3d 1d 2e 00 00 00 	cmpb   $0x0,0x2e1d(%rip)        # 4048 <completed.8061>
    122b:	75 2b                	jne    1258 <__do_global_dtors_aux+0x38>
    122d:	55                   	push   %rbp
    122e:	48 83 3d c2 2d 00 00 	cmpq   $0x0,0x2dc2(%rip)        # 3ff8 <__cxa_finalize@GLIBC_2.2.5>
    1235:	00 
    1236:	48 89 e5             	mov    %rsp,%rbp
    1239:	74 0c                	je     1247 <__do_global_dtors_aux+0x27>
    123b:	48 8b 3d c6 2d 00 00 	mov    0x2dc6(%rip),%rdi        # 4008 <__dso_handle>
    1242:	e8 89 fe ff ff       	call   10d0 <__cxa_finalize@plt>
    1247:	e8 64 ff ff ff       	call   11b0 <deregister_tm_clones>
    124c:	c6 05 f5 2d 00 00 01 	movb   $0x1,0x2df5(%rip)        # 4048 <completed.8061>
    1253:	5d                   	pop    %rbp
    1254:	c3                   	ret    
    1255:	0f 1f 00             	nopl   (%rax)
    1258:	c3                   	ret    
    1259:	0f 1f 80 00 00 00 00 	nopl   0x0(%rax)

0000000000001260 <frame_dummy>:
    1260:	f3 0f 1e fa          	endbr64 
    1264:	e9 77 ff ff ff       	jmp    11e0 <register_tm_clones>

0000000000001269 <sig_handler>:
    1269:	f3 0f 1e fa          	endbr64 
    126d:	55                   	push   %rbp
    126e:	48 89 e5             	mov    %rsp,%rbp
    1271:	48 83 ec 10          	sub    $0x10,%rsp
    1275:	89 7d fc             	mov    %edi,-0x4(%rbp)
    1278:	48 8d 3d 85 0d 00 00 	lea    0xd85(%rip),%rdi        # 2004 <_IO_stdin_used+0x4>
    127f:	e8 6c fe ff ff       	call   10f0 <puts@plt>
    1284:	bf 00 00 00 00       	mov    $0x0,%edi
    1289:	e8 d2 fe ff ff       	call   1160 <exit@plt>

000000000000128e <init>:
    128e:	f3 0f 1e fa          	endbr64 
    1292:	55                   	push   %rbp
    1293:	48 89 e5             	mov    %rsp,%rbp
    1296:	bf 3c 00 00 00       	mov    $0x3c,%edi
    129b:	e8 80 fe ff ff       	call   1120 <alarm@plt>
    12a0:	48 8d 35 c2 ff ff ff 	lea    -0x3e(%rip),%rsi        # 1269 <sig_handler>
    12a7:	bf 0e 00 00 00       	mov    $0xe,%edi
    12ac:	e8 8f fe ff ff       	call   1140 <signal@plt>
    12b1:	48 8b 05 78 2d 00 00 	mov    0x2d78(%rip),%rax        # 4030 <stdin@GLIBC_2.2.5>
    12b8:	b9 00 00 00 00       	mov    $0x0,%ecx
    12bd:	ba 02 00 00 00       	mov    $0x2,%edx
    12c2:	be 00 00 00 00       	mov    $0x0,%esi
    12c7:	48 89 c7             	mov    %rax,%rdi
    12ca:	e8 81 fe ff ff       	call   1150 <setvbuf@plt>
    12cf:	48 8b 05 4a 2d 00 00 	mov    0x2d4a(%rip),%rax        # 4020 <stdout@GLIBC_2.2.5>
    12d6:	b9 00 00 00 00       	mov    $0x0,%ecx
    12db:	ba 02 00 00 00       	mov    $0x2,%edx
    12e0:	be 00 00 00 00       	mov    $0x0,%esi
    12e5:	48 89 c7             	mov    %rax,%rdi
    12e8:	e8 63 fe ff ff       	call   1150 <setvbuf@plt>
    12ed:	48 8b 05 4c 2d 00 00 	mov    0x2d4c(%rip),%rax        # 4040 <stderr@GLIBC_2.2.5>
    12f4:	b9 00 00 00 00       	mov    $0x0,%ecx
    12f9:	ba 02 00 00 00       	mov    $0x2,%edx
    12fe:	be 00 00 00 00       	mov    $0x0,%esi
    1303:	48 89 c7             	mov    %rax,%rdi
    1306:	e8 45 fe ff ff       	call   1150 <setvbuf@plt>
    130b:	48 8d 3d fa 0c 00 00 	lea    0xcfa(%rip),%rdi        # 200c <_IO_stdin_used+0xc>
    1312:	e8 c9 fd ff ff       	call   10e0 <getenv@plt>
    1317:	48 89 c7             	mov    %rax,%rdi
    131a:	e8 e1 fd ff ff       	call   1100 <chdir@plt>
    131f:	90                   	nop
    1320:	5d                   	pop    %rbp
    1321:	c3                   	ret    

0000000000001322 <get_string>:
    1322:	f3 0f 1e fa          	endbr64 
    1326:	55                   	push   %rbp
    1327:	48 89 e5             	mov    %rsp,%rbp
    132a:	48 83 ec 20          	sub    $0x20,%rsp
    132e:	48 89 7d e8          	mov    %rdi,-0x18(%rbp)
    1332:	c7 45 fc 00 00 00 00 	movl   $0x0,-0x4(%rbp)
    1339:	eb 17                	jmp    1352 <get_string+0x30>
    133b:	8b 45 fc             	mov    -0x4(%rbp),%eax
    133e:	48 63 d0             	movslq %eax,%rdx
    1341:	48 8b 45 e8          	mov    -0x18(%rbp),%rax
    1345:	48 01 c2             	add    %rax,%rdx
    1348:	0f b6 45 fb          	movzbl -0x5(%rbp),%eax
    134c:	88 02                	mov    %al,(%rdx)
    134e:	83 45 fc 01          	addl   $0x1,-0x4(%rbp)
    1352:	e8 d9 fd ff ff       	call   1130 <getchar@plt>
    1357:	88 45 fb             	mov    %al,-0x5(%rbp)
    135a:	80 7d fb 0a          	cmpb   $0xa,-0x5(%rbp)
    135e:	75 db                	jne    133b <get_string+0x19>
    1360:	90                   	nop
    1361:	90                   	nop
    1362:	c9                   	leave  
    1363:	c3                   	ret    

0000000000001364 <greet>:
    1364:	f3 0f 1e fa          	endbr64 
    1368:	55                   	push   %rbp
    1369:	48 89 e5             	mov    %rsp,%rbp
    136c:	48 83 ec 10          	sub    $0x10,%rsp
    1370:	48 8d 3d 9a 0c 00 00 	lea    0xc9a(%rip),%rdi        # 2011 <_IO_stdin_used+0x11>
    1377:	b8 00 00 00 00       	mov    $0x0,%eax
    137c:	e8 8f fd ff ff       	call   1110 <printf@plt>
    1381:	48 8d 45 f0          	lea    -0x10(%rbp),%rax
    1385:	48 89 c7             	mov    %rax,%rdi
    1388:	e8 95 ff ff ff       	call   1322 <get_string>
    138d:	48 8d 45 f0          	lea    -0x10(%rbp),%rax
    1391:	48 89 c6             	mov    %rax,%rsi
    1394:	48 8d 3d 91 0c 00 00 	lea    0xc91(%rip),%rdi        # 202c <_IO_stdin_used+0x2c>
    139b:	b8 00 00 00 00       	mov    $0x0,%eax
    13a0:	e8 6b fd ff ff       	call   1110 <printf@plt>
    13a5:	90                   	nop
    13a6:	c9                   	leave  
    13a7:	c3                   	ret    

00000000000013a8 <main>:
    13a8:	f3 0f 1e fa          	endbr64 
    13ac:	55                   	push   %rbp
    13ad:	48 89 e5             	mov    %rsp,%rbp
    13b0:	b8 00 00 00 00       	mov    $0x0,%eax
    13b5:	e8 d4 fe ff ff       	call   128e <init>
    13ba:	b8 00 00 00 00       	mov    $0x0,%eax
    13bf:	e8 a0 ff ff ff       	call   1364 <greet>
    13c4:	b8 00 00 00 00       	mov    $0x0,%eax
    13c9:	5d                   	pop    %rbp
    13ca:	c3                   	ret    

00000000000013cb <win>:
    13cb:	f3 0f 1e fa          	endbr64 
    13cf:	55                   	push   %rbp
    13d0:	48 89 e5             	mov    %rsp,%rbp
    13d3:	bf 00 00 00 00       	mov    $0x0,%edi
    13d8:	e8 43 fd ff ff       	call   1120 <alarm@plt>
    13dd:	ba 00 00 00 00       	mov    $0x0,%edx
    13e2:	48 8d 35 59 0c 00 00 	lea    0xc59(%rip),%rsi        # 2042 <_IO_stdin_used+0x42>
    13e9:	48 8d 3d 52 0c 00 00 	lea    0xc52(%rip),%rdi        # 2042 <_IO_stdin_used+0x42>
    13f0:	b8 00 00 00 00       	mov    $0x0,%eax
    13f5:	e8 76 fd ff ff       	call   1170 <execl@plt>
    13fa:	90                   	nop
    13fb:	5d                   	pop    %rbp
    13fc:	c3                   	ret    
    13fd:	0f 1f 00             	nopl   (%rax)

0000000000001400 <__libc_csu_init>:
    1400:	f3 0f 1e fa          	endbr64 
    1404:	41 57                	push   %r15
    1406:	4c 8d 3d 63 29 00 00 	lea    0x2963(%rip),%r15        # 3d70 <__frame_dummy_init_array_entry>
    140d:	41 56                	push   %r14
    140f:	49 89 d6             	mov    %rdx,%r14
    1412:	41 55                	push   %r13
    1414:	49 89 f5             	mov    %rsi,%r13
    1417:	41 54                	push   %r12
    1419:	41 89 fc             	mov    %edi,%r12d
    141c:	55                   	push   %rbp
    141d:	48 8d 2d 54 29 00 00 	lea    0x2954(%rip),%rbp        # 3d78 <__do_global_dtors_aux_fini_array_entry>
    1424:	53                   	push   %rbx
    1425:	4c 29 fd             	sub    %r15,%rbp
    1428:	48 83 ec 08          	sub    $0x8,%rsp
    142c:	e8 cf fb ff ff       	call   1000 <_init>
    1431:	48 c1 fd 03          	sar    $0x3,%rbp
    1435:	74 1f                	je     1456 <__libc_csu_init+0x56>
    1437:	31 db                	xor    %ebx,%ebx
    1439:	0f 1f 80 00 00 00 00 	nopl   0x0(%rax)
    1440:	4c 89 f2             	mov    %r14,%rdx
    1443:	4c 89 ee             	mov    %r13,%rsi
    1446:	44 89 e7             	mov    %r12d,%edi
    1449:	41 ff 14 df          	call   *(%r15,%rbx,8)
    144d:	48 83 c3 01          	add    $0x1,%rbx
    1451:	48 39 dd             	cmp    %rbx,%rbp
    1454:	75 ea                	jne    1440 <__libc_csu_init+0x40>
    1456:	48 83 c4 08          	add    $0x8,%rsp
    145a:	5b                   	pop    %rbx
    145b:	5d                   	pop    %rbp
    145c:	41 5c                	pop    %r12
    145e:	41 5d                	pop    %r13
    1460:	41 5e                	pop    %r14
    1462:	41 5f                	pop    %r15
    1464:	c3                   	ret    
    1465:	66 66 2e 0f 1f 84 00 	data16 cs nopw 0x0(%rax,%rax,1)
    146c:	00 00 00 00 

0000000000001470 <__libc_csu_fini>:
    1470:	f3 0f 1e fa          	endbr64 
    1474:	c3                   	ret    

Disassembly of section .fini:

0000000000001478 <_fini>:
    1478:	f3 0f 1e fa          	endbr64 
    147c:	48 83 ec 08          	sub    $0x8,%rsp
    1480:	48 83 c4 08          	add    $0x8,%rsp
    1484:	c3                   	ret    
